target datalayout = "e-m:e-p270:32:32-p271:32:32-p272:64:64-i64:64-i128:128-f80:128-n8:16:32:64-S128"
target triple = "x86_64-unknown-linux-gnu"

@_ZN7rocksdb17BloomFilterPolicyC1Ed = unnamed_addr alias void (ptr, double), ptr @_ZN7rocksdb17BloomFilterPolicyC2Ed

; Function Attrs: mustprogress uwtable
define noundef ptr @_ZN7rocksdb20NewBloomFilterPolicyEdb(double noundef %bits_per_key, i1 noundef zeroext %0) #0 personality ptr @__gxx_personality_v0 {
entry:
  %bits_per_key.addr = alloca double, align 8
  %.addr = alloca i8, align 1
  %exn.slot = alloca ptr, align 8
  %ehselector.slot = alloca i32, align 4
  store double %bits_per_key, ptr %bits_per_key.addr, align 8
  %frombool = zext i1 %0 to i8
  store i8 %frombool, ptr %.addr, align 1
  %call = call noalias noundef nonnull ptr @_Znwm(i64 noundef 64) #20
  %1 = load double, ptr %bits_per_key.addr, align 8
  invoke void @_ZN7rocksdb17BloomFilterPolicyC1Ed(ptr noundef nonnull align 8 dereferenceable(64) %call, double noundef %1)
          to label %invoke.cont unwind label %lpad

invoke.cont:                                      ; preds = %entry
  ret ptr %call

lpad:                                             ; preds = %entry
  %2 = landingpad { ptr, i32 }
          cleanup
  %3 = extractvalue { ptr, i32 } %2, 0
  store ptr %3, ptr %exn.slot, align 8
  %4 = extractvalue { ptr, i32 } %2, 1
  store i32 %4, ptr %ehselector.slot, align 4
  call void @_ZdlPv(ptr noundef %call) #21
  br label %eh.resume

eh.resume:                                        ; preds = %lpad
  %exn = load ptr, ptr %exn.slot, align 8
  %sel = load i32, ptr %ehselector.slot, align 4
  %lpad.val = insertvalue { ptr, i32 } poison, ptr %exn, 0
  %lpad.val1 = insertvalue { ptr, i32 } %lpad.val, i32 %sel, 1
  resume { ptr, i32 } %lpad.val1
}