; Function Attrs: mustprogress uwtable
define noundef ptr @_ZN7rocksdb20NewBloomFilterPolicyEdb(double noundef %bits_per_key, i1 noundef zeroext %0) local_unnamed_addr #3 personality ptr @__gxx_personality_v0 {
entry:
  %call = tail call noalias noundef nonnull dereferenceable(64) ptr @_Znwm(i64 noundef 64) #34
  invoke void @_ZN7rocksdb17BloomFilterPolicyC1Ed(ptr noundef nonnull align 8 dereferenceable(64) %call, double noundef %bits_per_key)
          to label %invoke.cont unwind label %lpad

invoke.cont:                                      ; preds = %entry
  ret ptr %call

lpad:                                             ; preds = %entry
  %1 = landingpad { ptr, i32 }
          cleanup
  tail call void @_ZdlPv(ptr noundef nonnull %call) #31
  resume { ptr, i32 } %1
}